target datalayout = "e-m:e-p270:32:32-p271:32:32-p272:64:64-i64:64-i128:128-f80:128-n8:16:32:64-S128"
target triple = "x86_64-pc-linux-gnu"

%struct._object = type { %union.anon, ptr }
%union.anon = type { i64 }
%struct._typeobject = type { %struct.PyVarObject, ptr, i64, i64, ptr, i64, ptr, ptr, ptr, ptr, ptr, ptr, ptr, ptr, ptr, ptr, ptr, ptr, ptr, i64, ptr, ptr, ptr, ptr, i64, ptr, ptr, ptr, ptr, ptr, ptr, ptr, ptr, ptr, i64, ptr, ptr, ptr, ptr, ptr, ptr, ptr, ptr, ptr, ptr, ptr, i32, ptr, ptr, i8, i16 }
%struct.PyVarObject = type { %struct._object, i64 }
%struct.xmlparseobject = type { %struct._object, ptr, i32, i32, i32, i32, ptr, i32, i32, i8, ptr, ptr }

@PyExc_ValueError = external global ptr, align 8
@PyExc_TypeError = external global ptr, align 8
@PyExc_RuntimeError = external global ptr, align 8
@.str.136 = private unnamed_addr constant [24 x i8] c"Cannot delete attribute\00", align 1
@.str.137 = private unnamed_addr constant [31 x i8] c"buffer_size must be an integer\00", align 1
@.str.138 = private unnamed_addr constant [38 x i8] c"buffer_size must be greater than zero\00", align 1
@.str.139 = private unnamed_addr constant [40 x i8] c"buffer_size must not be greater than %i\00", align 1

; Function Attrs: nounwind uwtable
define internal i32 @flush_character_buffer(ptr noundef %0) #0 {
  %2 = alloca i32, align 4
  %3 = alloca ptr, align 8
  %4 = alloca i32, align 4
  %5 = alloca i32, align 4
  store ptr %0, ptr %3, align 8, !tbaa !8
  call void @llvm.lifetime.start.p0(i64 4, ptr %4) #7
  %6 = load ptr, ptr %3, align 8, !tbaa !8
  %7 = getelementptr inbounds nuw %struct.xmlparseobject, ptr %6, i32 0, i32 6
  %8 = load ptr, ptr %7, align 8, !tbaa !35
  %9 = icmp eq ptr %8, null
  br i1 %9, label %15, label %10

10:                                               ; preds = %1
  %11 = load ptr, ptr %3, align 8, !tbaa !8
  %12 = getelementptr inbounds nuw %struct.xmlparseobject, ptr %11, i32 0, i32 8
  %13 = load i32, ptr %12, align 4, !tbaa !40
  %14 = icmp eq i32 %13, 0
  br i1 %14, label %15, label %16

15:                                               ; preds = %10, %1
  store i32 0, ptr %2, align 4
  store i32 1, ptr %5, align 4
  br label %28

16:                                               ; preds = %10
  %17 = load ptr, ptr %3, align 8, !tbaa !8
  %18 = load ptr, ptr %3, align 8, !tbaa !8
  %19 = getelementptr inbounds nuw %struct.xmlparseobject, ptr %18, i32 0, i32 6
  %20 = load ptr, ptr %19, align 8, !tbaa !35
  %21 = load ptr, ptr %3, align 8, !tbaa !8
  %22 = getelementptr inbounds nuw %struct.xmlparseobject, ptr %21, i32 0, i32 8
  %23 = load i32, ptr %22, align 4, !tbaa !40
  %24 = call i32 @call_character_handler(ptr noundef %17, ptr noundef %20, i32 noundef %23)
  store i32 %24, ptr %4, align 4, !tbaa !12
  %25 = load ptr, ptr %3, align 8, !tbaa !8
  %26 = getelementptr inbounds nuw %struct.xmlparseobject, ptr %25, i32 0, i32 8
  store i32 0, ptr %26, align 4, !tbaa !40
  %27 = load i32, ptr %4, align 4, !tbaa !12
  store i32 %27, ptr %2, align 4
  store i32 1, ptr %5, align 4
  br label %28

28:                                               ; preds = %16, %15
  call void @llvm.lifetime.end.p0(i64 4, ptr %4) #7
  %29 = load i32, ptr %2, align 4
  ret i32 %29
}

; Function Attrs: inlinehint nounwind uwtable
define internal i32 @PyType_HasFeature(ptr noundef %0, i64 noundef %1) #3 {
  %3 = alloca ptr, align 8
  %4 = alloca i64, align 8
  %5 = alloca i64, align 8
  store ptr %0, ptr %3, align 8, !tbaa !18
  store i64 %1, ptr %4, align 8, !tbaa !21
  call void @llvm.lifetime.start.p0(i64 8, ptr %5) #7
  %6 = load ptr, ptr %3, align 8, !tbaa !18
  %7 = getelementptr inbounds nuw %struct._typeobject, ptr %6, i32 0, i32 19
  %8 = load i64, ptr %7, align 8, !tbaa !25
  store i64 %8, ptr %5, align 8, !tbaa !21
  %9 = load i64, ptr %5, align 8, !tbaa !21
  %10 = load i64, ptr %4, align 8, !tbaa !21
  %11 = and i64 %9, %10
  %12 = icmp ne i64 %11, 0
  %13 = zext i1 %12 to i32
  call void @llvm.lifetime.end.p0(i64 8, ptr %5) #7
  ret i32 %13
}

; Function Attrs: inlinehint nounwind uwtable
define internal ptr @_Py_TYPE(ptr noundef %0) #3 {
  %2 = alloca ptr, align 8
  store ptr %0, ptr %2, align 8, !tbaa !3
  %3 = load ptr, ptr %2, align 8, !tbaa !3
  %4 = getelementptr inbounds nuw %struct._object, ptr %3, i32 0, i32 1
  %5 = load ptr, ptr %4, align 8, !tbaa !33
  ret ptr %5
}

; Function Attrs: nounwind uwtable
define internal i32 @xmlparse_buffer_size_setter(ptr noundef %0, ptr noundef %1, ptr noundef %2) #0 {
  %4 = alloca i32, align 4
  %5 = alloca ptr, align 8
  %6 = alloca ptr, align 8
  %7 = alloca ptr, align 8
  %8 = alloca i64, align 8
  %9 = alloca i32, align 4
  store ptr %0, ptr %5, align 8, !tbaa !8
  store ptr %1, ptr %6, align 8, !tbaa !3
  store ptr %2, ptr %7, align 8, !tbaa !8
  %10 = load ptr, ptr %6, align 8, !tbaa !3
  %11 = icmp eq ptr %10, null
  br i1 %11, label %12, label %14

12:                                               ; preds = %3
  %13 = load ptr, ptr @PyExc_RuntimeError, align 8, !tbaa !3
  call void @PyErr_SetString(ptr noundef %13, ptr noundef @.str.136)
  store i32 -1, ptr %4, align 4
  br label %83

14:                                               ; preds = %3
  call void @llvm.lifetime.start.p0(i64 8, ptr %8) #7
  %15 = load ptr, ptr %6, align 8, !tbaa !3
  %16 = call ptr @_Py_TYPE(ptr noundef %15)
  %17 = call i32 @PyType_HasFeature(ptr noundef %16, i64 noundef 16777216)
  %18 = icmp ne i32 %17, 0
  br i1 %18, label %21, label %19

19:                                               ; preds = %14
  %20 = load ptr, ptr @PyExc_TypeError, align 8, !tbaa !3
  call void @PyErr_SetString(ptr noundef %20, ptr noundef @.str.137)
  store i32 -1, ptr %4, align 4
  store i32 1, ptr %9, align 4
  br label %82

21:                                               ; preds = %14
  %22 = load ptr, ptr %6, align 8, !tbaa !3
  %23 = call i64 @PyLong_AsLong(ptr noundef %22)
  store i64 %23, ptr %8, align 8, !tbaa !21
  %24 = load i64, ptr %8, align 8, !tbaa !21
  %25 = icmp sle i64 %24, 0
  br i1 %25, label %26, label %32

26:                                               ; preds = %21
  %27 = call ptr @PyErr_Occurred()
  %28 = icmp ne ptr %27, null
  br i1 %28, label %31, label %29

29:                                               ; preds = %26
  %30 = load ptr, ptr @PyExc_ValueError, align 8, !tbaa !3
  call void @PyErr_SetString(ptr noundef %30, ptr noundef @.str.138)
  br label %31

31:                                               ; preds = %29, %26
  store i32 -1, ptr %4, align 4
  store i32 1, ptr %9, align 4
  br label %82

32:                                               ; preds = %21
  %33 = load i64, ptr %8, align 8, !tbaa !21
  %34 = load ptr, ptr %5, align 8, !tbaa !8
  %35 = getelementptr inbounds nuw %struct.xmlparseobject, ptr %34, i32 0, i32 7
  %36 = load i32, ptr %35, align 8, !tbaa !39
  %37 = sext i32 %36 to i64
  %38 = icmp eq i64 %33, %37
  br i1 %38, label %39, label %40

39:                                               ; preds = %32
  store i32 0, ptr %4, align 4
  store i32 1, ptr %9, align 4
  br label %82

40:                                               ; preds = %32
  %41 = load i64, ptr %8, align 8, !tbaa !21
  %42 = icmp sgt i64 %41, 2147483647
  br i1 %42, label %43, label %46

43:                                               ; preds = %40
  %44 = load ptr, ptr @PyExc_ValueError, align 8, !tbaa !3
  %45 = call ptr (ptr, ptr, ...) @PyErr_Format(ptr noundef %44, ptr noundef @.str.139, i32 noundef 2147483647)
  store i32 -1, ptr %4, align 4
  store i32 1, ptr %9, align 4
  br label %82

46:                                               ; preds = %40
  %47 = load ptr, ptr %5, align 8, !tbaa !8
  %48 = getelementptr inbounds nuw %struct.xmlparseobject, ptr %47, i32 0, i32 6
  %49 = load ptr, ptr %48, align 8, !tbaa !35
  %50 = icmp ne ptr %49, null
  br i1 %50, label %51, label %66

51:                                               ; preds = %46
  %52 = load ptr, ptr %5, align 8, !tbaa !8
  %53 = getelementptr inbounds nuw %struct.xmlparseobject, ptr %52, i32 0, i32 8
  %54 = load i32, ptr %53, align 4, !tbaa !40
  %55 = icmp ne i32 %54, 0
  br i1 %55, label %56, label %62

56:                                               ; preds = %51
  %57 = load ptr, ptr %5, align 8, !tbaa !8
  %58 = call i32 @flush_character_buffer(ptr noundef %57)
  %59 = icmp slt i32 %58, 0
  br i1 %59, label %60, label %61

60:                                               ; preds = %56
  store i32 -1, ptr %4, align 4
  store i32 1, ptr %9, align 4
  br label %82

61:                                               ; preds = %56
  br label %62

62:                                               ; preds = %61, %51
  %63 = load ptr, ptr %5, align 8, !tbaa !8
  %64 = getelementptr inbounds nuw %struct.xmlparseobject, ptr %63, i32 0, i32 6
  %65 = load ptr, ptr %64, align 8, !tbaa !35
  call void @PyMem_Free(ptr noundef %65)
  br label %66

66:                                               ; preds = %62, %46
  %67 = load i64, ptr %8, align 8, !tbaa !21
  %68 = call ptr @PyMem_Malloc(i64 noundef %67)
  %69 = load ptr, ptr %5, align 8, !tbaa !8
  %70 = getelementptr inbounds nuw %struct.xmlparseobject, ptr %69, i32 0, i32 6
  store ptr %68, ptr %70, align 8, !tbaa !35
  %71 = load ptr, ptr %5, align 8, !tbaa !8
  %72 = getelementptr inbounds nuw %struct.xmlparseobject, ptr %71, i32 0, i32 6
  %73 = load ptr, ptr %72, align 8, !tbaa !35
  %74 = icmp eq ptr %73, null
  br i1 %74, label %75, label %77

75:                                               ; preds = %66
  %76 = call ptr @PyErr_NoMemory()
  store i32 -1, ptr %4, align 4
  store i32 1, ptr %9, align 4
  br label %82

77:                                               ; preds = %66
  %78 = load i64, ptr %8, align 8, !tbaa !21
  %79 = trunc i64 %78 to i32
  %80 = load ptr, ptr %5, align 8, !tbaa !8
  %81 = getelementptr inbounds nuw %struct.xmlparseobject, ptr %80, i32 0, i32 7
  store i32 %79, ptr %81, align 8, !tbaa !39
  store i32 0, ptr %4, align 4
  store i32 1, ptr %9, align 4
  br label %82

82:                                               ; preds = %77, %75, %60, %43, %39, %31, %19
  call void @llvm.lifetime.end.p0(i64 8, ptr %8) #7
  br label %83

83:                                               ; preds = %82, %12
  %84 = load i32, ptr %4, align 4
  ret i32 %84
}