; Function Attrs: nounwind uwtable
define internal range(i32 -1, 1) i32 @xmlparse_buffer_size_setter(ptr noundef captures(none) %0, ptr noundef %1, ptr readnone captures(none) %2) #0 {
  %4 = icmp eq ptr %1, null
  br i1 %4, label %5, label %7

5:                                                ; preds = %3
  %6 = load ptr, ptr @PyExc_RuntimeError, align 8, !tbaa !14
  tail call void @PyErr_SetString(ptr noundef %6, ptr noundef nonnull @.str.136) #8
  br label %47

7:                                                ; preds = %3
  %8 = getelementptr i8, ptr %1, i64 8
  %.val = load ptr, ptr %8, align 8, !tbaa !19
  %9 = getelementptr i8, ptr %.val, i64 168
  %.val21 = load i64, ptr %9, align 8, !tbaa !20
  %10 = and i64 %.val21, 16777216
  %.not = icmp eq i64 %10, 0
  br i1 %.not, label %11, label %13

11:                                               ; preds = %7
  %12 = load ptr, ptr @PyExc_TypeError, align 8, !tbaa !14
  tail call void @PyErr_SetString(ptr noundef %12, ptr noundef nonnull @.str.137) #8
  br label %47

13:                                               ; preds = %7
  %14 = tail call i64 @PyLong_AsLong(ptr noundef nonnull %1) #8
  %15 = icmp slt i64 %14, 1
  br i1 %15, label %16, label %20

16:                                               ; preds = %13
  %17 = tail call ptr @PyErr_Occurred() #8
  %.not20 = icmp eq ptr %17, null
  br i1 %.not20, label %18, label %47

18:                                               ; preds = %16
  %19 = load ptr, ptr @PyExc_ValueError, align 8, !tbaa !14
  tail call void @PyErr_SetString(ptr noundef %19, ptr noundef nonnull @.str.138) #8
  br label %47

20:                                               ; preds = %13
  %21 = getelementptr inbounds nuw i8, ptr %0, i64 48
  %22 = load i32, ptr %21, align 8, !tbaa !34
  %23 = sext i32 %22 to i64
  %24 = icmp eq i64 %14, %23
  br i1 %24, label %47, label %25

25:                                               ; preds = %20
  %26 = icmp samesign ugt i64 %14, 2147483647
  br i1 %26, label %27, label %30

27:                                               ; preds = %25
  %28 = load ptr, ptr @PyExc_ValueError, align 8, !tbaa !14
  %29 = tail call ptr (ptr, ptr, ...) @PyErr_Format(ptr noundef %28, ptr noundef nonnull @.str.139, i32 noundef 2147483647) #8
  br label %47

30:                                               ; preds = %25
  %31 = getelementptr inbounds nuw i8, ptr %0, i64 40
  %32 = load ptr, ptr %31, align 8, !tbaa !29
  %.not18 = icmp eq ptr %32, null
  br i1 %.not18, label %40, label %33

33:                                               ; preds = %30
  %34 = getelementptr inbounds nuw i8, ptr %0, i64 52
  %35 = load i32, ptr %34, align 4, !tbaa !35
  %.not19 = icmp eq i32 %35, 0
  br i1 %.not19, label %38, label %flush_character_buffer.exit

flush_character_buffer.exit:                      ; preds = %33
  %36 = tail call fastcc i32 @call_character_handler(ptr noundef nonnull %0, ptr noundef nonnull %32, i32 noundef %35)
  store i32 0, ptr %34, align 4, !tbaa !35
  %37 = icmp slt i32 %36, 0
  br i1 %37, label %47, label %flush_character_buffer.exit._crit_edge

flush_character_buffer.exit._crit_edge:           ; preds = %flush_character_buffer.exit
  %.pre = load ptr, ptr %31, align 8, !tbaa !29
  br label %38

38:                                               ; preds = %flush_character_buffer.exit._crit_edge, %33
  %39 = phi ptr [ %.pre, %flush_character_buffer.exit._crit_edge ], [ %32, %33 ]
  tail call void @PyMem_Free(ptr noundef %39) #8
  br label %40

40:                                               ; preds = %38, %30
  %41 = tail call ptr @PyMem_Malloc(i64 noundef %14) #8
  store ptr %41, ptr %31, align 8, !tbaa !29
  %42 = icmp eq ptr %41, null
  br i1 %42, label %43, label %45

43:                                               ; preds = %40
  %44 = tail call ptr @PyErr_NoMemory() #8
  br label %47

45:                                               ; preds = %40
  %46 = trunc nuw nsw i64 %14 to i32
  store i32 %46, ptr %21, align 8, !tbaa !34
  br label %47

47:                                               ; preds = %11, %27, %43, %45, %18, %16, %20, %flush_character_buffer.exit, %5
  %.0 = phi i32 [ -1, %5 ], [ -1, %27 ], [ -1, %43 ], [ 0, %45 ], [ -1, %11 ], [ -1, %18 ], [ -1, %16 ], [ 0, %20 ], [ -1, %flush_character_buffer.exit ]
  ret i32 %.0
}